; Function Attrs: mustprogress uwtable
define hidden void @_Z31exec_Z3_mk_fpa_numeral_int_uintR11z3_replayer(ptr noundef nonnull align 8 dereferenceable(8) %0) #0 {
  %2 = tail call noundef ptr @_ZNK11z3_replayer7get_objEj(ptr noundef nonnull align 8 dereferenceable(8) %0, i32 noundef 0)
  %3 = tail call noundef zeroext i1 @_ZNK11z3_replayer8get_boolEj(ptr noundef nonnull align 8 dereferenceable(8) %0, i32 noundef 1)
  %4 = tail call noundef i32 @_ZNK11z3_replayer7get_intEj(ptr noundef nonnull align 8 dereferenceable(8) %0, i32 noundef 2)
  %5 = tail call noundef i32 @_ZNK11z3_replayer8get_uintEj(ptr noundef nonnull align 8 dereferenceable(8) %0, i32 noundef 3)
  %6 = tail call noundef ptr @_ZNK11z3_replayer7get_objEj(ptr noundef nonnull align 8 dereferenceable(8) %0, i32 noundef 4)
  %7 = tail call ptr @Z3_mk_fpa_numeral_int_uint(ptr noundef %2, i1 noundef zeroext %3, i32 noundef %4, i32 noundef %5, ptr noundef %6)
  tail call void @_ZN11z3_replayer12store_resultEPv(ptr noundef nonnull align 8 dereferenceable(8) %0, ptr noundef %7)
  ret void
}